; Function Attrs: nounwind uwtable
define ptr @l_Lake_RegistryPkg_gitSrc_x3f(ptr noundef readonly captures(none) %0) local_unnamed_addr #1 {
  %2 = getelementptr inbounds nuw i8, ptr %0, i64 24
  %3 = load ptr, ptr %2, align 8, !tbaa !10
  %4 = getelementptr i8, ptr %3, i64 8
  %.val = load i64, ptr %4, align 8, !tbaa !12
  %5 = load ptr, ptr @l_Lake_RegistryPkg_gitSrc_x3f___closed__1, align 8, !tbaa !10
  %6 = tail call ptr @l_Array_forIn_x27Unsafe_loop___at_Lake_RegistryPkg_gitSrc_x3f___spec__1(ptr poison, ptr nonnull poison, ptr noundef %5, ptr noundef %3, i64 noundef %.val, i64 noundef 0, ptr noundef %5)
  %7 = getelementptr inbounds nuw i8, ptr %6, i64 8
  %8 = load ptr, ptr %7, align 8, !tbaa !10
  %9 = ptrtoint ptr %8 to i64
  %10 = and i64 %9, 1
  %.not = icmp eq i64 %10, 0
  br i1 %.not, label %11, label %lean_inc.exit19

11:                                               ; preds = %1
  %.val.i = load i32, ptr %8, align 4, !tbaa !4
  %12 = icmp sgt i32 %.val.i, 0
  br i1 %12, label %13, label %15, !prof !9

13:                                               ; preds = %11
  %14 = add nuw i32 %.val.i, 1
  store i32 %14, ptr %8, align 4, !tbaa !4
  br label %lean_inc.exit19

15:                                               ; preds = %11
  %.not.i22 = icmp eq i32 %.val.i, 0
  br i1 %.not.i22, label %lean_inc.exit19, label %16

16:                                               ; preds = %15
  tail call void @lean_inc_ref_cold(ptr noundef nonnull %8) #7
  br label %lean_inc.exit19

lean_inc.exit19:                                  ; preds = %16, %15, %13, %1
  %17 = ptrtoint ptr %6 to i64
  %18 = and i64 %17, 1
  %.not28 = icmp eq i64 %18, 0
  br i1 %.not28, label %19, label %lean_dec.exit18

19:                                               ; preds = %lean_inc.exit19
  %20 = load i32, ptr %6, align 4, !tbaa !4
  %21 = icmp sgt i32 %20, 1
  br i1 %21, label %22, label %24, !prof !9

22:                                               ; preds = %19
  %23 = add nsw i32 %20, -1
  store i32 %23, ptr %6, align 4, !tbaa !4
  br label %lean_dec.exit18

24:                                               ; preds = %19
  %.not.i = icmp eq i32 %20, 0
  br i1 %.not.i, label %lean_dec.exit18, label %25

25:                                               ; preds = %24
  tail call void @lean_dec_ref_cold(ptr noundef nonnull %6) #7
  br label %lean_dec.exit18

lean_dec.exit18:                                  ; preds = %25, %24, %22, %lean_inc.exit19
  br i1 %.not, label %29, label %26

26:                                               ; preds = %lean_dec.exit18
  %27 = lshr i64 %9, 1
  %28 = trunc i64 %27 to i32
  br label %lean_obj_tag.exit

29:                                               ; preds = %lean_dec.exit18
  %30 = getelementptr i8, ptr %8, i64 4
  %.val.i24 = load i32, ptr %30, align 4
  %31 = lshr i32 %.val.i24, 24
  br label %lean_obj_tag.exit

lean_obj_tag.exit:                                ; preds = %26, %29
  %.0.i = phi i32 [ %28, %26 ], [ %31, %29 ]
  %32 = icmp eq i32 %.0.i, 0
  br i1 %32, label %33, label %35

33:                                               ; preds = %lean_obj_tag.exit
  %34 = load ptr, ptr @l_Lake_RegistryPkg_gitSrc_x3f___closed__3, align 8, !tbaa !10
  br label %lean_dec.exit

35:                                               ; preds = %lean_obj_tag.exit
  %36 = getelementptr inbounds nuw i8, ptr %8, i64 8
  %37 = load ptr, ptr %36, align 8, !tbaa !10
  %38 = ptrtoint ptr %37 to i64
  %39 = and i64 %38, 1
  %.not29 = icmp eq i64 %39, 0
  br i1 %.not29, label %40, label %lean_inc.exit

40:                                               ; preds = %35
  %.val.i25 = load i32, ptr %37, align 4, !tbaa !4
  %41 = icmp sgt i32 %.val.i25, 0
  br i1 %41, label %42, label %44, !prof !9

42:                                               ; preds = %40
  %43 = add nuw i32 %.val.i25, 1
  store i32 %43, ptr %37, align 4, !tbaa !4
  br label %lean_inc.exit

44:                                               ; preds = %40
  %.not.i26 = icmp eq i32 %.val.i25, 0
  br i1 %.not.i26, label %lean_inc.exit, label %45

45:                                               ; preds = %44
  tail call void @lean_inc_ref_cold(ptr noundef nonnull %37) #7
  br label %lean_inc.exit

lean_inc.exit:                                    ; preds = %45, %44, %42, %35
  br i1 %.not, label %46, label %lean_dec.exit

46:                                               ; preds = %lean_inc.exit
  %47 = load i32, ptr %8, align 4, !tbaa !4
  %48 = icmp sgt i32 %47, 1
  br i1 %48, label %49, label %51, !prof !9

49:                                               ; preds = %46
  %50 = add nsw i32 %47, -1
  store i32 %50, ptr %8, align 4, !tbaa !4
  br label %lean_dec.exit

51:                                               ; preds = %46
  %.not.i20 = icmp eq i32 %47, 0
  br i1 %.not.i20, label %lean_dec.exit, label %52

52:                                               ; preds = %51
  tail call void @lean_dec_ref_cold(ptr noundef nonnull %8) #7
  br label %lean_dec.exit

lean_dec.exit:                                    ; preds = %lean_inc.exit, %49, %51, %52, %33
  %.0 = phi ptr [ %34, %33 ], [ %37, %52 ], [ %37, %51 ], [ %37, %49 ], [ %37, %lean_inc.exit ]
  ret ptr %.0
}